target datalayout = "e-m:e-p270:32:32-p271:32:32-p272:64:64-i64:64-i128:128-f80:128-n8:16:32:64-S128"
target triple = "x86_64-pc-linux-gnu"

%"class.icu_77::UObject" = type { ptr }
%"class.icu_77::DateFormatSymbols" = type { %"class.icu_77::UObject", ptr, i32, ptr, i32, ptr, i32, ptr, i32, ptr, i32, ptr, i32, ptr, i32, ptr, i32, ptr, i32, ptr, i32, ptr, i32, ptr, i32, ptr, i32, ptr, i32, ptr, i32, ptr, i32, ptr, i32, ptr, i32, ptr, i32, %"class.icu_77::UnicodeString", ptr, i32, ptr, i32, ptr, i32, ptr, i32, ptr, i32, ptr, i32, ptr, i32, ptr, i32, ptr, i32, ptr, ptr, i32, i32, %"class.icu_77::Locale", %"class.icu_77::UnicodeString", [14 x [2 x i8]], ptr, i32, ptr, i32, ptr, i32, ptr, i32, ptr, i32, ptr, i32, ptr, ptr }
%"class.icu_77::Locale" = type <{ %"class.icu_77::UObject", [12 x i8], [6 x i8], [4 x i8], [2 x i8], i32, [4 x i8], ptr, [157 x i8], [3 x i8], ptr, i8, [7 x i8] }>
%"class.icu_77::UnicodeString" = type { %"class.icu_77::Replaceable", %"union.icu_77::UnicodeString::StackBufferOrFields" }
%"class.icu_77::Replaceable" = type { %"class.icu_77::UObject" }
%"union.icu_77::UnicodeString::StackBufferOrFields" = type { %struct.anon.0, [32 x i8] }
%struct.anon.0 = type { i16, i32, i32, ptr }
%struct.anon = type { i16, [27 x i16] }

@_ZTVN6icu_777UObjectE = available_externally unnamed_addr constant { [5 x ptr] } { [5 x ptr] [ptr null, ptr @_ZTIN6icu_777UObjectE, ptr @_ZN6icu_777UObjectD1Ev, ptr @_ZN6icu_777UObjectD0Ev, ptr @_ZNK6icu_777UObject17getDynamicClassIDEv] }, align 8

; Function Attrs: inlinehint mustprogress nounwind uwtable
define linkonce_odr void @_ZN6icu_777UObjectC2Ev(ptr noundef nonnull align 8 dereferenceable(8) %0) unnamed_addr #2 comdat align 2 {
  %2 = alloca ptr, align 8
  store ptr %0, ptr %2, align 8, !tbaa !48
  %3 = load ptr, ptr %2, align 8
  store ptr getelementptr inbounds inrange(-16, 24) ({ [5 x ptr] }, ptr @_ZTVN6icu_777UObjectE, i32 0, i32 0, i32 2), ptr %3, align 8, !tbaa !25
  ret void
}

; Function Attrs: inlinehint mustprogress nounwind uwtable
define linkonce_odr void @_ZN6icu_7711ReplaceableC2Ev(ptr noundef nonnull align 8 dereferenceable(8) %0) unnamed_addr #2 comdat align 2 {
  %2 = alloca ptr, align 8
  store ptr %0, ptr %2, align 8, !tbaa !218
  %3 = load ptr, ptr %2, align 8
  call void @_ZN6icu_777UObjectC2Ev(ptr noundef nonnull align 8 dereferenceable(8) %3) #14
  store ptr getelementptr inbounds inrange(-16, 88) ({ [13 x ptr] }, ptr @_ZTVN6icu_7711ReplaceableE, i32 0, i32 0, i32 2), ptr %3, align 8, !tbaa !25
  ret void
}

; Function Attrs: inlinehint mustprogress uwtable
define linkonce_odr void @_ZN6icu_7713UnicodeStringC2Ev(ptr noundef nonnull align 8 dereferenceable(64) %0) unnamed_addr #3 comdat align 2 {
  %2 = alloca ptr, align 8
  store ptr %0, ptr %2, align 8, !tbaa !50
  %3 = load ptr, ptr %2, align 8
  call void @_ZN6icu_7711ReplaceableC2Ev(ptr noundef nonnull align 8 dereferenceable(8) %3)
  store ptr getelementptr inbounds inrange(-16, 88) ({ [13 x ptr] }, ptr @_ZTVN6icu_7713UnicodeStringE, i32 0, i32 0, i32 2), ptr %3, align 8, !tbaa !25
  %4 = getelementptr inbounds nuw %"class.icu_77::UnicodeString", ptr %3, i32 0, i32 1
  %5 = getelementptr inbounds nuw %struct.anon, ptr %4, i32 0, i32 0
  store i16 2, ptr %5, align 8, !tbaa !51
  ret void
}

; Function Attrs: inlinehint mustprogress uwtable
define internal noundef ptr @_ZN6icu_77L21newUnicodeStringArrayEm(i64 noundef %0) #3 personality ptr @__gxx_personality_v0 {
  %2 = alloca i64, align 8
  %3 = alloca ptr, align 8
  %4 = alloca i64, align 8
  %5 = alloca i1, align 1
  %6 = alloca ptr, align 8
  %7 = alloca ptr, align 8
  %8 = alloca i1, align 1
  %9 = alloca ptr, align 8
  %10 = alloca i32, align 4
  store i64 %0, ptr %2, align 8, !tbaa !18
  %11 = load i64, ptr %2, align 8, !tbaa !18
  %12 = icmp ne i64 %11, 0
  br i1 %12, label %13, label %15

13:                                               ; preds = %1
  %14 = load i64, ptr %2, align 8, !tbaa !18
  br label %16

15:                                               ; preds = %1
  br label %16

16:                                               ; preds = %15, %13
  %17 = phi i64 [ %14, %13 ], [ 1, %15 ]
  %18 = call { i64, i1 } @llvm.umul.with.overflow.i64(i64 %17, i64 64)
  %19 = extractvalue { i64, i1 } %18, 1
  %20 = extractvalue { i64, i1 } %18, 0
  %21 = call { i64, i1 } @llvm.uadd.with.overflow.i64(i64 %20, i64 8)
  %22 = extractvalue { i64, i1 } %21, 1
  %23 = or i1 %19, %22
  %24 = extractvalue { i64, i1 } %21, 0
  %25 = select i1 %23, i64 -1, i64 %24
  %26 = call noundef ptr @_ZN6icu_777UMemorynaEm(i64 noundef %25) #14
  %27 = icmp eq ptr %26, null
  store i1 false, ptr %5, align 1
  store i1 false, ptr %8, align 1
  br i1 %27, label %39, label %28

28:                                               ; preds = %16
  store ptr %26, ptr %3, align 8
  store i64 %25, ptr %4, align 8
  store i1 true, ptr %5, align 1
  store i64 %17, ptr %26, align 8
  %29 = getelementptr inbounds i8, ptr %26, i64 8
  %30 = icmp eq i64 %17, 0
  br i1 %30, label %38, label %31

31:                                               ; preds = %28
  %32 = getelementptr inbounds %"class.icu_77::UnicodeString", ptr %29, i64 %17
  br label %33

33:                                               ; preds = %35, %31
  %34 = phi ptr [ %29, %31 ], [ %36, %35 ]
  store ptr %29, ptr %6, align 8
  store ptr %34, ptr %7, align 8
  store i1 true, ptr %8, align 1
  invoke void @_ZN6icu_7713UnicodeStringC2Ev(ptr noundef nonnull align 8 dereferenceable(64) %34)
          to label %35 unwind label %41

35:                                               ; preds = %33
  %36 = getelementptr inbounds %"class.icu_77::UnicodeString", ptr %34, i64 1
  %37 = icmp eq ptr %36, %32
  br i1 %37, label %38, label %33

38:                                               ; preds = %28, %35
  br label %39

39:                                               ; preds = %38, %16
  %40 = phi ptr [ %29, %38 ], [ null, %16 ]
  ret ptr %40

41:                                               ; preds = %33
  %42 = landingpad { ptr, i32 }
          cleanup
  %43 = extractvalue { ptr, i32 } %42, 0
  store ptr %43, ptr %9, align 8
  %44 = extractvalue { ptr, i32 } %42, 1
  store i32 %44, ptr %10, align 4
  %45 = load i1, ptr %8, align 1
  br i1 %45, label %46, label %55

46:                                               ; preds = %41
  %47 = load ptr, ptr %6, align 8
  %48 = load ptr, ptr %7, align 8
  %49 = icmp eq ptr %47, %48
  br i1 %49, label %54, label %50

50:                                               ; preds = %50, %46
  %51 = phi ptr [ %48, %46 ], [ %52, %50 ]
  %52 = getelementptr inbounds %"class.icu_77::UnicodeString", ptr %51, i64 -1
  call void @_ZN6icu_7713UnicodeStringD1Ev(ptr noundef nonnull align 8 dereferenceable(64) %52) #14
  %53 = icmp eq ptr %52, %47
  br i1 %53, label %54, label %50

54:                                               ; preds = %50, %46
  br label %55

55:                                               ; preds = %54, %41
  %56 = load i1, ptr %5, align 1
  br i1 %56, label %57, label %59

57:                                               ; preds = %55
  %58 = load ptr, ptr %3, align 8
  call void @_ZN6icu_777UMemorydaEPv(ptr noundef %58) #14
  br label %59

59:                                               ; preds = %57, %55
  br label %60

60:                                               ; preds = %59
  %61 = load ptr, ptr %9, align 8
  %62 = load i32, ptr %10, align 4
  %63 = insertvalue { ptr, i32 } poison, ptr %61, 0
  %64 = insertvalue { ptr, i32 } %63, i32 %62, 1
  resume { ptr, i32 } %64
}

; Function Attrs: mustprogress uwtable
define void @_ZN6icu_7717DateFormatSymbols17createZoneStringsEPKPKNS_13UnicodeStringE(ptr noundef nonnull align 8 dereferenceable(976) %0, ptr noundef %1) #1 align 2 {
  %3 = alloca ptr, align 8
  %4 = alloca ptr, align 8
  %5 = alloca i32, align 4
  %6 = alloca i32, align 4
  %7 = alloca i8, align 1
  %8 = alloca i32, align 4
  store ptr %0, ptr %3, align 8, !tbaa !31
  store ptr %1, ptr %4, align 8, !tbaa !133
  %9 = load ptr, ptr %3, align 8
  call void @llvm.lifetime.start.p0(i64 4, ptr %5) #14
  call void @llvm.lifetime.start.p0(i64 4, ptr %6) #14
  call void @llvm.lifetime.start.p0(i64 1, ptr %7) #14
  store i8 0, ptr %7, align 1, !tbaa !51
  %10 = getelementptr inbounds nuw %"class.icu_77::DateFormatSymbols", ptr %9, i32 0, i32 60
  %11 = load i32, ptr %10, align 8, !tbaa !108
  %12 = sext i32 %11 to i64
  %13 = mul i64 %12, 8
  %14 = call noalias ptr @uprv_malloc_77(i64 noundef %13) #15
  %15 = getelementptr inbounds nuw %"class.icu_77::DateFormatSymbols", ptr %9, i32 0, i32 58
  store ptr %14, ptr %15, align 8, !tbaa !110
  %16 = getelementptr inbounds nuw %"class.icu_77::DateFormatSymbols", ptr %9, i32 0, i32 58
  %17 = load ptr, ptr %16, align 8, !tbaa !110
  %18 = icmp ne ptr %17, null
  br i1 %18, label %19, label %76

19:                                               ; preds = %2
  store i32 0, ptr %5, align 4, !tbaa !14
  br label %20

20:                                               ; preds = %72, %19
  %21 = load i32, ptr %5, align 4, !tbaa !14
  %22 = getelementptr inbounds nuw %"class.icu_77::DateFormatSymbols", ptr %9, i32 0, i32 60
  %23 = load i32, ptr %22, align 8, !tbaa !108
  %24 = icmp slt i32 %21, %23
  br i1 %24, label %25, label %75

25:                                               ; preds = %20
  %26 = getelementptr inbounds nuw %"class.icu_77::DateFormatSymbols", ptr %9, i32 0, i32 61
  %27 = load i32, ptr %26, align 4, !tbaa !109
  %28 = sext i32 %27 to i64
  %29 = call noundef ptr @_ZN6icu_77L21newUnicodeStringArrayEm(i64 noundef %28)
  %30 = getelementptr inbounds nuw %"class.icu_77::DateFormatSymbols", ptr %9, i32 0, i32 58
  %31 = load ptr, ptr %30, align 8, !tbaa !110
  %32 = load i32, ptr %5, align 4, !tbaa !14
  %33 = sext i32 %32 to i64
  %34 = getelementptr inbounds ptr, ptr %31, i64 %33
  store ptr %29, ptr %34, align 8, !tbaa !50
  %35 = getelementptr inbounds nuw %"class.icu_77::DateFormatSymbols", ptr %9, i32 0, i32 58
  %36 = load ptr, ptr %35, align 8, !tbaa !110
  %37 = load i32, ptr %5, align 4, !tbaa !14
  %38 = sext i32 %37 to i64
  %39 = getelementptr inbounds ptr, ptr %36, i64 %38
  %40 = load ptr, ptr %39, align 8, !tbaa !50
  %41 = icmp eq ptr %40, null
  br i1 %41, label %42, label %43

42:                                               ; preds = %25
  store i8 1, ptr %7, align 1, !tbaa !51
  br label %75

43:                                               ; preds = %25
  store i32 0, ptr %6, align 4, !tbaa !14
  br label %44

44:                                               ; preds = %68, %43
  %45 = load i32, ptr %6, align 4, !tbaa !14
  %46 = getelementptr inbounds nuw %"class.icu_77::DateFormatSymbols", ptr %9, i32 0, i32 61
  %47 = load i32, ptr %46, align 4, !tbaa !109
  %48 = icmp slt i32 %45, %47
  br i1 %48, label %49, label %71

49:                                               ; preds = %44
  %50 = getelementptr inbounds nuw %"class.icu_77::DateFormatSymbols", ptr %9, i32 0, i32 58
  %51 = load ptr, ptr %50, align 8, !tbaa !110
  %52 = load i32, ptr %5, align 4, !tbaa !14
  %53 = sext i32 %52 to i64
  %54 = getelementptr inbounds ptr, ptr %51, i64 %53
  %55 = load ptr, ptr %54, align 8, !tbaa !50
  %56 = load i32, ptr %6, align 4, !tbaa !14
  %57 = sext i32 %56 to i64
  %58 = getelementptr inbounds %"class.icu_77::UnicodeString", ptr %55, i64 %57
  %59 = load ptr, ptr %4, align 8, !tbaa !133
  %60 = load i32, ptr %5, align 4, !tbaa !14
  %61 = sext i32 %60 to i64
  %62 = getelementptr inbounds ptr, ptr %59, i64 %61
  %63 = load ptr, ptr %62, align 8, !tbaa !50
  %64 = load i32, ptr %6, align 4, !tbaa !14
  %65 = sext i32 %64 to i64
  %66 = getelementptr inbounds %"class.icu_77::UnicodeString", ptr %63, i64 %65
  %67 = call noundef nonnull align 8 dereferenceable(64) ptr @_ZN6icu_7713UnicodeString12fastCopyFromERKS0_(ptr noundef nonnull align 8 dereferenceable(64) %58, ptr noundef nonnull align 8 dereferenceable(64) %66)
  br label %68

68:                                               ; preds = %49
  %69 = load i32, ptr %6, align 4, !tbaa !14
  %70 = add nsw i32 %69, 1
  store i32 %70, ptr %6, align 4, !tbaa !14
  br label %44, !llvm.loop !135

71:                                               ; preds = %44
  br label %72

72:                                               ; preds = %71
  %73 = load i32, ptr %5, align 4, !tbaa !14
  %74 = add nsw i32 %73, 1
  store i32 %74, ptr %5, align 4, !tbaa !14
  br label %20, !llvm.loop !136

75:                                               ; preds = %42, %20
  br label %76

76:                                               ; preds = %75, %2
  %77 = load i8, ptr %7, align 1, !tbaa !51
  %78 = icmp ne i8 %77, 0
  br i1 %78, label %79, label %111

79:                                               ; preds = %76
  call void @llvm.lifetime.start.p0(i64 4, ptr %8) #14
  %80 = load i32, ptr %5, align 4, !tbaa !14
  store i32 %80, ptr %8, align 4, !tbaa !14
  br label %81

81:                                               ; preds = %104, %79
  %82 = load i32, ptr %8, align 4, !tbaa !14
  %83 = icmp sge i32 %82, 0
  br i1 %83, label %85, label %84

84:                                               ; preds = %81
  call void @llvm.lifetime.end.p0(i64 4, ptr %8) #14
  br label %107

85:                                               ; preds = %81
  %86 = getelementptr inbounds nuw %"class.icu_77::DateFormatSymbols", ptr %9, i32 0, i32 58
  %87 = load ptr, ptr %86, align 8, !tbaa !110
  %88 = load i32, ptr %8, align 4, !tbaa !14
  %89 = sext i32 %88 to i64
  %90 = getelementptr inbounds ptr, ptr %87, i64 %89
  %91 = load ptr, ptr %90, align 8, !tbaa !50
  %92 = icmp eq ptr %91, null
  br i1 %92, label %103, label %93

93:                                               ; preds = %85
  %94 = getelementptr inbounds i8, ptr %91, i64 -8
  %95 = load i64, ptr %94, align 8
  %96 = getelementptr inbounds %"class.icu_77::UnicodeString", ptr %91, i64 %95
  %97 = icmp eq ptr %91, %96
  br i1 %97, label %102, label %98

98:                                               ; preds = %98, %93
  %99 = phi ptr [ %96, %93 ], [ %100, %98 ]
  %100 = getelementptr inbounds %"class.icu_77::UnicodeString", ptr %99, i64 -1
  call void @_ZN6icu_7713UnicodeStringD1Ev(ptr noundef nonnull align 8 dereferenceable(64) %100) #14
  %101 = icmp eq ptr %100, %91
  br i1 %101, label %102, label %98

102:                                              ; preds = %98, %93
  call void @_ZN6icu_777UMemorydaEPv(ptr noundef %94) #14
  br label %103

103:                                              ; preds = %102, %85
  br label %104

104:                                              ; preds = %103
  %105 = load i32, ptr %8, align 4, !tbaa !14
  %106 = add nsw i32 %105, -1
  store i32 %106, ptr %8, align 4, !tbaa !14
  br label %81, !llvm.loop !137

107:                                              ; preds = %84
  %108 = getelementptr inbounds nuw %"class.icu_77::DateFormatSymbols", ptr %9, i32 0, i32 58
  %109 = load ptr, ptr %108, align 8, !tbaa !110
  call void @uprv_free_77(ptr noundef %109)
  %110 = getelementptr inbounds nuw %"class.icu_77::DateFormatSymbols", ptr %9, i32 0, i32 58
  store ptr null, ptr %110, align 8, !tbaa !110
  br label %111

111:                                              ; preds = %107, %76
  call void @llvm.lifetime.end.p0(i64 1, ptr %7) #14
  call void @llvm.lifetime.end.p0(i64 4, ptr %6) #14
  call void @llvm.lifetime.end.p0(i64 4, ptr %5) #14
  ret void
}